; Function Attrs: mustprogress nounwind uwtable
define hidden void @_ZN20ShenandoahMarkBitMap17clear_range_largeE9MemRegion(ptr nocapture noundef nonnull readonly align 8 dereferenceable(40) %0, ptr %1, i64 %2) local_unnamed_addr #1 align 2 {
  %4 = alloca %class.MemRegion, align 8
  store ptr %1, ptr %4, align 8
  %5 = getelementptr inbounds i8, ptr %4, i64 8
  store i64 %2, ptr %5, align 8
  %6 = getelementptr inbounds i8, ptr %0, i64 8
  %.sroa.0.0.copyload = load ptr, ptr %6, align 8
  %.sroa.2.0..sroa_idx = getelementptr inbounds i8, ptr %0, i64 16
  %.sroa.2.0.copyload = load i64, ptr %.sroa.2.0..sroa_idx, align 8
  %7 = call { ptr, i64 } @_ZNK9MemRegion12intersectionES_(ptr noundef nonnull align 8 dereferenceable(16) %4, ptr %.sroa.0.0.copyload, i64 %.sroa.2.0.copyload) #11
  %8 = extractvalue { ptr, i64 } %7, 0
  %9 = extractvalue { ptr, i64 } %7, 1
  %10 = load ptr, ptr %6, align 8
  %11 = ptrtoint ptr %8 to i64
  %12 = ptrtoint ptr %10 to i64
  %13 = sub i64 %11, %12
  %14 = lshr i64 %13, 2
  %15 = and i64 %14, 4611686018427387902
  %16 = load i32, ptr %0, align 8
  %17 = zext nneg i32 %16 to i64
  %18 = lshr i64 %15, %17
  %19 = getelementptr inbounds ptr, ptr %8, i64 %9
  %20 = ptrtoint ptr %19 to i64
  %21 = sub i64 %20, %12
  %22 = lshr i64 %21, 2
  %23 = and i64 %22, 4611686018427387902
  %24 = lshr i64 %23, %17
  call void @_ZN20ShenandoahMarkBitMap17clear_large_rangeEmm(ptr noundef nonnull align 8 dereferenceable(40) %0, i64 noundef %18, i64 noundef %24)
  ret void
}